; Function Attrs: mustprogress nounwind uwtable
define dso_local noundef i32 @_ZNK4llvm16TargetSchedModel19computeInstrLatencyERKNS_6MCInstE(ptr noundef nonnull align 8 dereferenceable(280) %0, ptr noundef nonnull align 8 dereferenceable(128) %1) local_unnamed_addr #0 align 2 {
  %3 = load i8, ptr getelementptr inbounds (i8, ptr @_ZL16EnableSchedModel, i64 128), align 8
  %4 = trunc i8 %3 to i1
  %5 = getelementptr inbounds nuw i8, ptr %0, i64 40
  %6 = load ptr, ptr %5, align 8
  %7 = icmp ne ptr %6, null
  %8 = select i1 %4, i1 %7, i1 false
  br i1 %8, label %9, label %16

9:                                                ; preds = %2
  %10 = getelementptr inbounds nuw i8, ptr %0, i64 176
  %11 = load ptr, ptr %10, align 8
  %12 = getelementptr inbounds nuw i8, ptr %0, i64 184
  %13 = load ptr, ptr %12, align 8
  %14 = getelementptr inbounds i8, ptr %13, i64 8
  %15 = tail call noundef i32 @_ZNK4llvm12MCSchedModel19computeInstrLatencyERKNS_15MCSubtargetInfoERKNS_11MCInstrInfoERKNS_6MCInstE(ptr noundef nonnull align 8 dereferenceable(72) %0, ptr noundef nonnull align 8 dereferenceable(288) %11, ptr noundef nonnull align 8 dereferenceable(44) %14, ptr noundef nonnull align 8 dereferenceable(128) %1) #11
  br label %30

16:                                               ; preds = %2
  %17 = load i32, ptr %1, align 8
  %18 = getelementptr inbounds nuw i8, ptr %0, i64 184
  %19 = load ptr, ptr %18, align 8
  %20 = getelementptr inbounds i8, ptr %19, i64 8
  %21 = load ptr, ptr %20, align 8
  %22 = zext i32 %17 to i64
  %23 = sub nsw i64 0, %22
  %24 = getelementptr inbounds %"class.llvm::MCInstrDesc", ptr %21, i64 %23, i32 4
  %25 = load i16, ptr %24, align 2
  %26 = zext i16 %25 to i32
  %27 = getelementptr inbounds nuw i8, ptr %0, i64 176
  %28 = load ptr, ptr %27, align 8
  %29 = tail call noundef i32 @_ZNK4llvm12MCSchedModel19computeInstrLatencyERKNS_15MCSubtargetInfoEj(ptr noundef nonnull align 8 dereferenceable(72) %0, ptr noundef nonnull align 8 dereferenceable(288) %28, i32 noundef %26) #11
  br label %30

30:                                               ; preds = %16, %9
  %.sink4 = phi i32 [ %29, %16 ], [ %15, %9 ]
  %31 = icmp sgt i32 %.sink4, -1
  %32 = select i1 %31, i32 %.sink4, i32 1000
  ret i32 %32
}